; Function Attrs: mustprogress nofree norecurse nosync nounwind willreturn memory(argmem: read) uwtable
define noundef double @_ZNK8QuantLib15BlackCalculator17elasticityForwardEv(ptr nocapture noundef nonnull readonly align 8 dereferenceable(152) %this) local_unnamed_addr #17 align 2 {
entry:
  %discount_.i = getelementptr inbounds nuw i8, ptr %this, i64 32
  %0 = load double, ptr %discount_.i, align 8, !tbaa !31
  %forward_.i = getelementptr inbounds nuw i8, ptr %this, i64 16
  %1 = load double, ptr %forward_.i, align 8, !tbaa !29
  %alpha_.i = getelementptr inbounds nuw i8, ptr %this, i64 64
  %2 = load double, ptr %alpha_.i, align 8, !tbaa !55
  %x_.i = getelementptr inbounds nuw i8, ptr %this, i64 128
  %3 = load double, ptr %x_.i, align 8, !tbaa !51
  %beta_.i = getelementptr inbounds nuw i8, ptr %this, i64 72
  %4 = load double, ptr %beta_.i, align 8, !tbaa !57
  %mul2.i = fmul double %3, %4
  %5 = tail call double @llvm.fmuladd.f64(double %1, double %2, double %mul2.i)
  %mul.i = fmul double %0, %5
  %stdDev_.i = getelementptr inbounds nuw i8, ptr %this, i64 24
  %6 = load double, ptr %stdDev_.i, align 8, !tbaa !30
  %mul.i5 = fmul double %1, %6
  %DalphaDd1_.i = getelementptr inbounds nuw i8, ptr %this, i64 80
  %7 = load double, ptr %DalphaDd1_.i, align 8, !tbaa !56
  %div.i = fdiv double %7, %mul.i5
  %DbetaDd2_.i = getelementptr inbounds nuw i8, ptr %this, i64 88
  %8 = load double, ptr %DbetaDd2_.i, align 8, !tbaa !58
  %div2.i = fdiv double %8, %mul.i5
  %9 = tail call double @llvm.fmuladd.f64(double %div.i, double %1, double %2)
  %10 = tail call double @llvm.fmuladd.f64(double %div2.i, double %3, double %9)
  %mul6.i = fmul double %0, %10
  %cmp = fcmp ogt double %mul.i, 0x3CB0000000000000
  br i1 %cmp, label %if.then, label %if.else

if.then:                                          ; preds = %entry
  %div = fdiv double %mul6.i, %mul.i
  %mul = fmul double %1, %div
  br label %cleanup

if.else:                                          ; preds = %entry
  %11 = tail call double @llvm.fabs.f64(double %mul6.i)
  %cmp5 = fcmp olt double %11, 0x3CB0000000000000
  br i1 %cmp5, label %cleanup, label %if.else7

if.else7:                                         ; preds = %if.else
  %cmp8 = fcmp ogt double %mul6.i, 0.000000e+00
  br i1 %cmp8, label %cleanup, label %if.else11

if.else11:                                        ; preds = %if.else7
  br label %cleanup

cleanup:                                          ; preds = %if.else7, %if.else, %if.else11, %if.then
  %retval.0 = phi double [ %mul, %if.then ], [ 0xFFEFFFFFFFFFFFFF, %if.else11 ], [ 0.000000e+00, %if.else ], [ 0x7FEFFFFFFFFFFFFF, %if.else7 ]
  ret double %retval.0
}